; Function Attrs: mustprogress uwtable
define hidden void @_ZN4cvc58internal6theory11quantifiers9SygusUnifC2ERNS0_3EnvE(ptr noundef nonnull align 8 dereferenceable(193) %this, ptr noundef nonnull align 8 dereferenceable(576) %env) unnamed_addr #3 align 2 personality ptr @__gxx_personality_v0 {
entry:
  tail call void @_ZN4cvc58internal6EnvObjC2ERNS0_3EnvE(ptr noundef nonnull align 8 dereferenceable(16) %this, ptr noundef nonnull align 8 dereferenceable(576) %env)
  store ptr getelementptr inbounds ({ [13 x ptr] }, ptr @_ZTVN4cvc58internal6theory11quantifiers9SygusUnifE, i64 0, i32 0, i64 2), ptr %this, align 8
  %d_tds = getelementptr inbounds i8, ptr %this, i64 16
  %0 = getelementptr inbounds i8, ptr %this, i64 56
  store i32 0, ptr %0, align 8
  %_M_parent.i.i.i.i.i = getelementptr inbounds i8, ptr %this, i64 64
  store ptr null, ptr %_M_parent.i.i.i.i.i, align 8
  %_M_left.i.i.i.i.i = getelementptr inbounds i8, ptr %this, i64 72
  tail call void @llvm.memset.p0.i64(ptr noundef nonnull align 8 dereferenceable(32) %d_tds, i8 0, i64 32, i1 false)
  store ptr %0, ptr %_M_left.i.i.i.i.i, align 8
  %_M_right.i.i.i.i.i = getelementptr inbounds i8, ptr %this, i64 80
  store ptr %0, ptr %_M_right.i.i.i.i.i, align 8
  %_M_node_count.i.i.i.i.i = getelementptr inbounds i8, ptr %this, i64 88
  store i64 0, ptr %_M_node_count.i.i.i.i.i, align 8
  %1 = getelementptr inbounds i8, ptr %this, i64 104
  store i32 0, ptr %1, align 8
  %_M_parent.i.i.i.i.i1 = getelementptr inbounds i8, ptr %this, i64 112
  store ptr null, ptr %_M_parent.i.i.i.i.i1, align 8
  %_M_left.i.i.i.i.i2 = getelementptr inbounds i8, ptr %this, i64 120
  store ptr %1, ptr %_M_left.i.i.i.i.i2, align 8
  %_M_right.i.i.i.i.i3 = getelementptr inbounds i8, ptr %this, i64 128
  store ptr %1, ptr %_M_right.i.i.i.i.i3, align 8
  %_M_node_count.i.i.i.i.i4 = getelementptr inbounds i8, ptr %this, i64 136
  store i64 0, ptr %_M_node_count.i.i.i.i.i4, align 8
  %2 = getelementptr inbounds i8, ptr %this, i64 152
  store i32 0, ptr %2, align 8
  %_M_parent.i.i.i.i.i5 = getelementptr inbounds i8, ptr %this, i64 160
  store ptr null, ptr %_M_parent.i.i.i.i.i5, align 8
  %_M_left.i.i.i.i.i6 = getelementptr inbounds i8, ptr %this, i64 168
  store ptr %2, ptr %_M_left.i.i.i.i.i6, align 8
  %_M_right.i.i.i.i.i7 = getelementptr inbounds i8, ptr %this, i64 176
  store ptr %2, ptr %_M_right.i.i.i.i.i7, align 8
  %_M_node_count.i.i.i.i.i8 = getelementptr inbounds i8, ptr %this, i64 184
  store i64 0, ptr %_M_node_count.i.i.i.i.i8, align 8
  %d_enableMinimality = getelementptr inbounds i8, ptr %this, i64 192
  store i8 0, ptr %d_enableMinimality, align 8
  ret void
}